; Function Attrs: mustprogress nounwind uwtable
define hidden void @_ZN13StackOverflow34disable_stack_yellow_reserved_zoneEv(ptr nocapture noundef nonnull align 8 dereferenceable(56) %0) local_unnamed_addr #2 align 2 {
  %2 = load i32, ptr %0, align 8
  %3 = icmp eq i32 %2, 0
  br i1 %3, label %15, label %4

4:                                                ; preds = %1
  %5 = getelementptr inbounds i8, ptr %0, i64 48
  %6 = load ptr, ptr %5, align 8
  %7 = load i64, ptr @_ZN13StackOverflow20_stack_red_zone_sizeE, align 8
  %8 = getelementptr inbounds i8, ptr %6, i64 %7
  %9 = load i64, ptr @_ZN13StackOverflow23_stack_yellow_zone_sizeE, align 8
  %10 = load i64, ptr @_ZN13StackOverflow25_stack_reserved_zone_sizeE, align 8
  %11 = add i64 %10, %9
  %12 = tail call noundef zeroext i1 @_ZN2os14unguard_memoryEPcm(ptr noundef %8, i64 noundef %11) #7
  br i1 %12, label %13, label %14

13:                                               ; preds = %4
  store i32 2, ptr %0, align 8
  br label %15

14:                                               ; preds = %4
  tail call void (ptr, ...) @_Z7warningPKcz(ptr noundef nonnull @.str.19) #7
  br label %15

15:                                               ; preds = %1, %14, %13
  ret void
}